target datalayout = "e-m:e-p270:32:32-p271:32:32-p272:64:64-i64:64-i128:128-f80:128-n8:16:32:64-S128"
target triple = "x86_64-pc-linux-gnu"

%struct._zend_refcounted_h = type { i32, %union.anon }
%union.anon = type { i32 }
%struct._zend_string = type { %struct._zend_refcounted_h, i64, i64, [1 x i8] }

; Function Attrs: nounwind uwtable
define i64 @zend_string_hash_func(ptr noundef %0) #0 {
  %2 = alloca ptr, align 8
  store ptr %0, ptr %2, align 8
  %3 = load ptr, ptr %2, align 8
  %4 = getelementptr inbounds %struct._zend_string, ptr %3, i32 0, i32 3
  %5 = getelementptr inbounds [1 x i8], ptr %4, i64 0, i64 0
  %6 = load ptr, ptr %2, align 8
  %7 = getelementptr inbounds %struct._zend_string, ptr %6, i32 0, i32 2
  %8 = load i64, ptr %7, align 8
  %9 = call i64 @zend_hash_func(ptr noundef %5, i64 noundef %8)
  %10 = load ptr, ptr %2, align 8
  %11 = getelementptr inbounds %struct._zend_string, ptr %10, i32 0, i32 1
  store i64 %9, ptr %11, align 8
  ret i64 %9
}