; Function Attrs: nofree norecurse nosync nounwind memory(read, argmem: readwrite, inaccessiblemem: none) uwtable
define i64 @zend_string_hash_func(ptr nocapture noundef %0) local_unnamed_addr #0 {
  %2 = getelementptr inbounds i8, ptr %0, i64 24
  %3 = getelementptr inbounds i8, ptr %0, i64 16
  %4 = load i64, ptr %3, align 8
  %5 = tail call i64 @zend_hash_func(ptr noundef nonnull %2, i64 noundef %4), !range !4
  %6 = getelementptr inbounds i8, ptr %0, i64 8
  store i64 %5, ptr %6, align 8
  ret i64 %5
}